target datalayout = "e-m:e-p270:32:32-p271:32:32-p272:64:64-i64:64-i128:128-f80:128-n8:16:32:64-S128"
target triple = "x86_64-pc-linux-gnu"

%struct.yyguts_t = type { ptr, ptr, ptr, i64, i64, ptr, i8, i32, i32, ptr, i32, i32, i32, i32, i32, ptr, ptr, ptr, i32, i32, ptr, i32, i32, ptr }
%struct.jsonpath_yy_extra_type = type { %struct.JsonPathString }
%struct.JsonPathString = type { ptr, i32, i32 }
%struct.Node = type { i32 }

@.str.16 = private unnamed_addr constant [16 x i8] c"jsonpath_scan.l\00", align 1
@.str.67 = private unnamed_addr constant [36 x i8] c"unsupported Unicode escape sequence\00", align 1
@.str.68 = private unnamed_addr constant [36 x i8] c"\\u0000 cannot be converted to text.\00", align 1
@__func__.addUnicodeChar = private unnamed_addr constant [15 x i8] c"addUnicodeChar\00", align 1
@.str.69 = private unnamed_addr constant [45 x i8] c"could not convert Unicode to server encoding\00", align 1

; Function Attrs: nounwind uwtable
define internal void @resizeString(i1 noundef zeroext %0, i32 noundef %1, ptr noundef %2) #0 {
  %4 = alloca i8, align 1
  %5 = alloca i32, align 4
  %6 = alloca ptr, align 8
  %7 = zext i1 %0 to i8
  store i8 %7, ptr %4, align 1
  store i32 %1, ptr %5, align 4
  store ptr %2, ptr %6, align 8
  %8 = load i8, ptr %4, align 1, !range !6, !noundef !7
  %9 = trunc i8 %8 to i1
  br i1 %9, label %10, label %41

10:                                               ; preds = %3
  %11 = load i32, ptr %5, align 4
  %12 = icmp sgt i32 32, %11
  br i1 %12, label %13, label %14

13:                                               ; preds = %10
  br label %16

14:                                               ; preds = %10
  %15 = load i32, ptr %5, align 4
  br label %16

16:                                               ; preds = %14, %13
  %17 = phi i32 [ 32, %13 ], [ %15, %14 ]
  %18 = load ptr, ptr %6, align 8
  %19 = getelementptr inbounds nuw %struct.yyguts_t, ptr %18, i32 0, i32 0
  %20 = load ptr, ptr %19, align 8
  %21 = getelementptr inbounds nuw %struct.jsonpath_yy_extra_type, ptr %20, i32 0, i32 0
  %22 = getelementptr inbounds nuw %struct.JsonPathString, ptr %21, i32 0, i32 2
  store i32 %17, ptr %22, align 4
  %23 = load ptr, ptr %6, align 8
  %24 = getelementptr inbounds nuw %struct.yyguts_t, ptr %23, i32 0, i32 0
  %25 = load ptr, ptr %24, align 8
  %26 = getelementptr inbounds nuw %struct.jsonpath_yy_extra_type, ptr %25, i32 0, i32 0
  %27 = getelementptr inbounds nuw %struct.JsonPathString, ptr %26, i32 0, i32 2
  %28 = load i32, ptr %27, align 4
  %29 = sext i32 %28 to i64
  %30 = call ptr @palloc(i64 noundef %29)
  %31 = load ptr, ptr %6, align 8
  %32 = getelementptr inbounds nuw %struct.yyguts_t, ptr %31, i32 0, i32 0
  %33 = load ptr, ptr %32, align 8
  %34 = getelementptr inbounds nuw %struct.jsonpath_yy_extra_type, ptr %33, i32 0, i32 0
  %35 = getelementptr inbounds nuw %struct.JsonPathString, ptr %34, i32 0, i32 0
  store ptr %30, ptr %35, align 8
  %36 = load ptr, ptr %6, align 8
  %37 = getelementptr inbounds nuw %struct.yyguts_t, ptr %36, i32 0, i32 0
  %38 = load ptr, ptr %37, align 8
  %39 = getelementptr inbounds nuw %struct.jsonpath_yy_extra_type, ptr %38, i32 0, i32 0
  %40 = getelementptr inbounds nuw %struct.JsonPathString, ptr %39, i32 0, i32 1
  store i32 0, ptr %40, align 8
  br label %103

41:                                               ; preds = %3
  %42 = load ptr, ptr %6, align 8
  %43 = getelementptr inbounds nuw %struct.yyguts_t, ptr %42, i32 0, i32 0
  %44 = load ptr, ptr %43, align 8
  %45 = getelementptr inbounds nuw %struct.jsonpath_yy_extra_type, ptr %44, i32 0, i32 0
  %46 = getelementptr inbounds nuw %struct.JsonPathString, ptr %45, i32 0, i32 1
  %47 = load i32, ptr %46, align 8
  %48 = load i32, ptr %5, align 4
  %49 = add i32 %47, %48
  %50 = load ptr, ptr %6, align 8
  %51 = getelementptr inbounds nuw %struct.yyguts_t, ptr %50, i32 0, i32 0
  %52 = load ptr, ptr %51, align 8
  %53 = getelementptr inbounds nuw %struct.jsonpath_yy_extra_type, ptr %52, i32 0, i32 0
  %54 = getelementptr inbounds nuw %struct.JsonPathString, ptr %53, i32 0, i32 2
  %55 = load i32, ptr %54, align 4
  %56 = icmp sge i32 %49, %55
  br i1 %56, label %57, label %102

57:                                               ; preds = %41
  br label %58

58:                                               ; preds = %74, %57
  %59 = load ptr, ptr %6, align 8
  %60 = getelementptr inbounds nuw %struct.yyguts_t, ptr %59, i32 0, i32 0
  %61 = load ptr, ptr %60, align 8
  %62 = getelementptr inbounds nuw %struct.jsonpath_yy_extra_type, ptr %61, i32 0, i32 0
  %63 = getelementptr inbounds nuw %struct.JsonPathString, ptr %62, i32 0, i32 1
  %64 = load i32, ptr %63, align 8
  %65 = load i32, ptr %5, align 4
  %66 = add i32 %64, %65
  %67 = load ptr, ptr %6, align 8
  %68 = getelementptr inbounds nuw %struct.yyguts_t, ptr %67, i32 0, i32 0
  %69 = load ptr, ptr %68, align 8
  %70 = getelementptr inbounds nuw %struct.jsonpath_yy_extra_type, ptr %69, i32 0, i32 0
  %71 = getelementptr inbounds nuw %struct.JsonPathString, ptr %70, i32 0, i32 2
  %72 = load i32, ptr %71, align 4
  %73 = icmp sge i32 %66, %72
  br i1 %73, label %74, label %82

74:                                               ; preds = %58
  %75 = load ptr, ptr %6, align 8
  %76 = getelementptr inbounds nuw %struct.yyguts_t, ptr %75, i32 0, i32 0
  %77 = load ptr, ptr %76, align 8
  %78 = getelementptr inbounds nuw %struct.jsonpath_yy_extra_type, ptr %77, i32 0, i32 0
  %79 = getelementptr inbounds nuw %struct.JsonPathString, ptr %78, i32 0, i32 2
  %80 = load i32, ptr %79, align 4
  %81 = mul i32 %80, 2
  store i32 %81, ptr %79, align 4
  br label %58, !llvm.loop !19

82:                                               ; preds = %58
  %83 = load ptr, ptr %6, align 8
  %84 = getelementptr inbounds nuw %struct.yyguts_t, ptr %83, i32 0, i32 0
  %85 = load ptr, ptr %84, align 8
  %86 = getelementptr inbounds nuw %struct.jsonpath_yy_extra_type, ptr %85, i32 0, i32 0
  %87 = getelementptr inbounds nuw %struct.JsonPathString, ptr %86, i32 0, i32 0
  %88 = load ptr, ptr %87, align 8
  %89 = load ptr, ptr %6, align 8
  %90 = getelementptr inbounds nuw %struct.yyguts_t, ptr %89, i32 0, i32 0
  %91 = load ptr, ptr %90, align 8
  %92 = getelementptr inbounds nuw %struct.jsonpath_yy_extra_type, ptr %91, i32 0, i32 0
  %93 = getelementptr inbounds nuw %struct.JsonPathString, ptr %92, i32 0, i32 2
  %94 = load i32, ptr %93, align 4
  %95 = sext i32 %94 to i64
  %96 = call ptr @repalloc(ptr noundef %88, i64 noundef %95)
  %97 = load ptr, ptr %6, align 8
  %98 = getelementptr inbounds nuw %struct.yyguts_t, ptr %97, i32 0, i32 0
  %99 = load ptr, ptr %98, align 8
  %100 = getelementptr inbounds nuw %struct.jsonpath_yy_extra_type, ptr %99, i32 0, i32 0
  %101 = getelementptr inbounds nuw %struct.JsonPathString, ptr %100, i32 0, i32 0
  store ptr %96, ptr %101, align 8
  br label %102

102:                                              ; preds = %82, %41
  br label %103

103:                                              ; preds = %102, %16
  ret void
}

; Function Attrs: nounwind uwtable
define internal void @addstring(i1 noundef zeroext %0, ptr noundef %1, i32 noundef %2, ptr noundef %3) #0 {
  %5 = alloca i8, align 1
  %6 = alloca ptr, align 8
  %7 = alloca i32, align 4
  %8 = alloca ptr, align 8
  %9 = zext i1 %0 to i8
  store i8 %9, ptr %5, align 1
  store ptr %1, ptr %6, align 8
  store i32 %2, ptr %7, align 4
  store ptr %3, ptr %8, align 8
  %10 = load i8, ptr %5, align 1, !range !6, !noundef !7
  %11 = trunc i8 %10 to i1
  %12 = load i32, ptr %7, align 4
  %13 = add i32 %12, 1
  %14 = load ptr, ptr %8, align 8
  call void @resizeString(i1 noundef zeroext %11, i32 noundef %13, ptr noundef %14)
  %15 = load ptr, ptr %8, align 8
  %16 = getelementptr inbounds nuw %struct.yyguts_t, ptr %15, i32 0, i32 0
  %17 = load ptr, ptr %16, align 8
  %18 = getelementptr inbounds nuw %struct.jsonpath_yy_extra_type, ptr %17, i32 0, i32 0
  %19 = getelementptr inbounds nuw %struct.JsonPathString, ptr %18, i32 0, i32 0
  %20 = load ptr, ptr %19, align 8
  %21 = load ptr, ptr %8, align 8
  %22 = getelementptr inbounds nuw %struct.yyguts_t, ptr %21, i32 0, i32 0
  %23 = load ptr, ptr %22, align 8
  %24 = getelementptr inbounds nuw %struct.jsonpath_yy_extra_type, ptr %23, i32 0, i32 0
  %25 = getelementptr inbounds nuw %struct.JsonPathString, ptr %24, i32 0, i32 1
  %26 = load i32, ptr %25, align 8
  %27 = sext i32 %26 to i64
  %28 = getelementptr inbounds i8, ptr %20, i64 %27
  %29 = load ptr, ptr %6, align 8
  %30 = load i32, ptr %7, align 4
  %31 = sext i32 %30 to i64
  call void @llvm.memcpy.p0.p0.i64(ptr align 1 %28, ptr align 1 %29, i64 %31, i1 false)
  %32 = load i32, ptr %7, align 4
  %33 = load ptr, ptr %8, align 8
  %34 = getelementptr inbounds nuw %struct.yyguts_t, ptr %33, i32 0, i32 0
  %35 = load ptr, ptr %34, align 8
  %36 = getelementptr inbounds nuw %struct.jsonpath_yy_extra_type, ptr %35, i32 0, i32 0
  %37 = getelementptr inbounds nuw %struct.JsonPathString, ptr %36, i32 0, i32 1
  %38 = load i32, ptr %37, align 8
  %39 = add i32 %38, %32
  store i32 %39, ptr %37, align 8
  ret void
}

; Function Attrs: nounwind uwtable
define internal zeroext i1 @addUnicodeChar(i32 noundef %0, ptr noundef %1, ptr noundef %2) #0 {
  %4 = alloca i1, align 1
  %5 = alloca i32, align 4
  %6 = alloca ptr, align 8
  %7 = alloca ptr, align 8
  %8 = alloca ptr, align 8
  %9 = alloca [17 x i8], align 16
  %10 = alloca ptr, align 8
  %11 = alloca i32, align 4
  store i32 %0, ptr %5, align 4
  store ptr %1, ptr %6, align 8
  store ptr %2, ptr %7, align 8
  %12 = load i32, ptr %5, align 4
  %13 = icmp eq i32 %12, 0
  br i1 %13, label %14, label %28

14:                                               ; preds = %3
  br label %15

15:                                               ; preds = %14
  br label %16

16:                                               ; preds = %15
  call void @llvm.lifetime.start.p0(i64 8, ptr %8) #12
  %17 = load ptr, ptr %6, align 8
  store ptr %17, ptr %8, align 8
  %18 = load ptr, ptr %8, align 8
  %19 = call zeroext i1 @errsave_start(ptr noundef %18, ptr noundef null)
  br i1 %19, label %20, label %25

20:                                               ; preds = %16
  %21 = call i32 @errcode(i32 noundef 84017282)
  %22 = call i32 (ptr, ...) @errmsg(ptr noundef @.str.67)
  %23 = call i32 (ptr, ...) @errdetail(ptr noundef @.str.68)
  %24 = load ptr, ptr %8, align 8
  call void @errsave_finish(ptr noundef %24, ptr noundef @.str.16, i32 noundef 585, ptr noundef @__func__.addUnicodeChar)
  br label %25

25:                                               ; preds = %20, %16
  call void @llvm.lifetime.end.p0(i64 8, ptr %8) #12
  br label %26

26:                                               ; preds = %25
  store i1 false, ptr %4, align 1
  br label %69

27:                                               ; No predecessors!
  br label %68

28:                                               ; preds = %3
  call void @llvm.lifetime.start.p0(i64 17, ptr %9) #12
  %29 = load ptr, ptr %6, align 8
  %30 = icmp ne ptr %29, null
  br i1 %30, label %31, label %36

31:                                               ; preds = %28
  %32 = load ptr, ptr %6, align 8
  %33 = getelementptr inbounds nuw %struct.Node, ptr %32, i32 0, i32 0
  %34 = load i32, ptr %33, align 4
  %35 = icmp eq i32 %34, 446
  br i1 %35, label %39, label %36

36:                                               ; preds = %31, %28
  %37 = load i32, ptr %5, align 4
  %38 = getelementptr inbounds [17 x i8], ptr %9, i64 0, i64 0
  call void @pg_unicode_to_server(i32 noundef %37, ptr noundef %38)
  br label %59

39:                                               ; preds = %31
  %40 = load i32, ptr %5, align 4
  %41 = getelementptr inbounds [17 x i8], ptr %9, i64 0, i64 0
  %42 = call zeroext i1 @pg_unicode_to_server_noerror(i32 noundef %40, ptr noundef %41)
  br i1 %42, label %58, label %43

43:                                               ; preds = %39
  br label %44

44:                                               ; preds = %43
  br label %45

45:                                               ; preds = %44
  call void @llvm.lifetime.start.p0(i64 8, ptr %10) #12
  %46 = load ptr, ptr %6, align 8
  store ptr %46, ptr %10, align 8
  %47 = load ptr, ptr %10, align 8
  %48 = call zeroext i1 @errsave_start(ptr noundef %47, ptr noundef null)
  br i1 %48, label %49, label %53

49:                                               ; preds = %45
  %50 = call i32 @errcode(i32 noundef 16801924)
  %51 = call i32 (ptr, ...) @errmsg(ptr noundef @.str.69)
  %52 = load ptr, ptr %10, align 8
  call void @errsave_finish(ptr noundef %52, ptr noundef @.str.16, i32 noundef 602, ptr noundef @__func__.addUnicodeChar)
  br label %53

53:                                               ; preds = %49, %45
  call void @llvm.lifetime.end.p0(i64 8, ptr %10) #12
  br label %54

54:                                               ; preds = %53
  br label %55

55:                                               ; preds = %54
  store i1 false, ptr %4, align 1
  store i32 1, ptr %11, align 4
  br label %65

56:                                               ; No predecessors!
  br label %57

57:                                               ; preds = %56
  br label %58

58:                                               ; preds = %57, %39
  br label %59

59:                                               ; preds = %58, %36
  %60 = getelementptr inbounds [17 x i8], ptr %9, i64 0, i64 0
  %61 = getelementptr inbounds [17 x i8], ptr %9, i64 0, i64 0
  %62 = call i64 @strlen(ptr noundef %61) #14
  %63 = trunc i64 %62 to i32
  %64 = load ptr, ptr %7, align 8
  call void @addstring(i1 noundef zeroext false, ptr noundef %60, i32 noundef %63, ptr noundef %64)
  store i32 0, ptr %11, align 4
  br label %65

65:                                               ; preds = %59, %55
  call void @llvm.lifetime.end.p0(i64 17, ptr %9) #12
  %66 = load i32, ptr %11, align 4
  switch i32 %66, label %71 [
    i32 0, label %67
    i32 1, label %69
  ]

67:                                               ; preds = %65
  br label %68

68:                                               ; preds = %67, %27
  store i1 true, ptr %4, align 1
  br label %69

69:                                               ; preds = %68, %65, %26
  %70 = load i1, ptr %4, align 1
  ret i1 %70

71:                                               ; preds = %65
  unreachable
}