; Function Attrs: nounwind uwtable
define internal fastcc noundef zeroext i1 @addUnicodeChar(i32 noundef %0, ptr noundef %1, ptr noundef readonly captures(none) %2) unnamed_addr #0 {
  %4 = alloca [17 x i8], align 16
  %5 = icmp eq i32 %0, 0
  br i1 %5, label %6, label %12

6:                                                ; preds = %3
  %7 = tail call zeroext i1 @errsave_start(ptr noundef %1, ptr noundef null) #17
  br i1 %7, label %8, label %58

8:                                                ; preds = %6
  %9 = tail call i32 @errcode(i32 noundef 84017282) #17
  %10 = tail call i32 (ptr, ...) @errmsg(ptr noundef nonnull @.str.67) #17
  %11 = tail call i32 (ptr, ...) @errdetail(ptr noundef nonnull @.str.68) #17
  tail call void @errsave_finish(ptr noundef %1, ptr noundef nonnull @.str.16, i32 noundef 585, ptr noundef nonnull @__func__.addUnicodeChar) #17
  br label %58

12:                                               ; preds = %3
  call void @llvm.lifetime.start.p0(i64 17, ptr nonnull %4) #17
  %.not = icmp eq ptr %1, null
  br i1 %.not, label %16, label %13

13:                                               ; preds = %12
  %14 = load i32, ptr %1, align 4
  %15 = icmp eq i32 %14, 446
  br i1 %15, label %17, label %16

16:                                               ; preds = %13, %12
  call void @pg_unicode_to_server(i32 noundef %0, ptr noundef nonnull %4) #17
  br label %24

17:                                               ; preds = %13
  %18 = call zeroext i1 @pg_unicode_to_server_noerror(i32 noundef %0, ptr noundef nonnull %4) #17
  br i1 %18, label %24, label %19

19:                                               ; preds = %17
  %20 = call zeroext i1 @errsave_start(ptr noundef nonnull %1, ptr noundef null) #17
  br i1 %20, label %21, label %57

21:                                               ; preds = %19
  %22 = call i32 @errcode(i32 noundef 16801924) #17
  %23 = call i32 (ptr, ...) @errmsg(ptr noundef nonnull @.str.69) #17
  call void @errsave_finish(ptr noundef nonnull %1, ptr noundef nonnull @.str.16, i32 noundef 602, ptr noundef nonnull @__func__.addUnicodeChar) #17
  br label %57

24:                                               ; preds = %17, %16
  %25 = call i64 @strlen(ptr noundef nonnull dereferenceable(1) %4) #19
  %26 = trunc i64 %25 to i32
  %27 = add i32 %26, 1
  %28 = load ptr, ptr %2, align 8
  %29 = getelementptr inbounds nuw i8, ptr %28, i64 8
  %30 = load i32, ptr %29, align 8
  %31 = add i32 %30, %27
  %32 = getelementptr inbounds nuw i8, ptr %28, i64 12
  %33 = load i32, ptr %32, align 4
  %.not.i.i = icmp slt i32 %31, %33
  br i1 %.not.i.i, label %addstring.exit, label %.lr.ph.i.i

.lr.ph.i.i:                                       ; preds = %24, %.lr.ph.i.i
  %34 = phi i32 [ %42, %.lr.ph.i.i ], [ %33, %24 ]
  %35 = phi ptr [ %41, %.lr.ph.i.i ], [ %32, %24 ]
  %36 = shl i32 %34, 1
  store i32 %36, ptr %35, align 4
  %37 = load ptr, ptr %2, align 8
  %38 = getelementptr inbounds nuw i8, ptr %37, i64 8
  %39 = load i32, ptr %38, align 8
  %40 = add i32 %39, %27
  %41 = getelementptr inbounds nuw i8, ptr %37, i64 12
  %42 = load i32, ptr %41, align 4
  %.not16.i.i = icmp slt i32 %40, %42
  br i1 %.not16.i.i, label %._crit_edge.i.i, label %.lr.ph.i.i, !llvm.loop !6

._crit_edge.i.i:                                  ; preds = %.lr.ph.i.i
  %43 = load ptr, ptr %37, align 8
  %44 = sext i32 %42 to i64
  %45 = call ptr @repalloc(ptr noundef %43, i64 noundef %44) #17
  %46 = load ptr, ptr %2, align 8
  store ptr %45, ptr %46, align 8
  %.pre = load ptr, ptr %2, align 8
  %.phi.trans.insert = getelementptr inbounds nuw i8, ptr %.pre, i64 8
  %.pre18 = load i32, ptr %.phi.trans.insert, align 8
  br label %addstring.exit

addstring.exit:                                   ; preds = %24, %._crit_edge.i.i
  %47 = phi i32 [ %30, %24 ], [ %.pre18, %._crit_edge.i.i ]
  %48 = phi ptr [ %28, %24 ], [ %.pre, %._crit_edge.i.i ]
  %49 = load ptr, ptr %48, align 8
  %50 = sext i32 %47 to i64
  %51 = getelementptr inbounds i8, ptr %49, i64 %50
  %sext = shl i64 %25, 32
  %52 = ashr exact i64 %sext, 32
  call void @llvm.memcpy.p0.p0.i64(ptr align 1 %51, ptr nonnull readonly align 16 %4, i64 %52, i1 false)
  %53 = load ptr, ptr %2, align 8
  %54 = getelementptr inbounds nuw i8, ptr %53, i64 8
  %55 = load i32, ptr %54, align 8
  %56 = add i32 %55, %26
  store i32 %56, ptr %54, align 8
  br label %57

57:                                               ; preds = %19, %21, %addstring.exit
  %switch = phi i1 [ true, %addstring.exit ], [ false, %21 ], [ false, %19 ]
  call void @llvm.lifetime.end.p0(i64 17, ptr nonnull %4) #17
  br label %58

58:                                               ; preds = %57, %6, %8
  %.013 = phi i1 [ false, %8 ], [ false, %6 ], [ %switch, %57 ]
  ret i1 %.013
}